; Function Attrs: mustprogress uwtable
define internal void @_ZN9grpc_core12_GLOBAL__N_121InprocServerTransport6OrphanEv(ptr noundef nonnull align 16 dereferenceable(176) %this) unnamed_addr #8 align 2 personality ptr @__gxx_personality_v0 {
entry:
  %refs_.i = getelementptr inbounds i8, ptr %this, i64 8
  %0 = atomicrmw sub ptr %refs_.i, i64 1 acq_rel, align 8
  %cmp.i.i = icmp eq i64 %0, 1
  br i1 %cmp.i.i, label %if.then.i, label %_ZNK9grpc_core10RefCountedINS_12_GLOBAL__N_121InprocServerTransportENS_19PolymorphicRefCountENS_11UnrefDeleteEE5UnrefEv.exit

if.then.i:                                        ; preds = %entry
  %state_tracker_.i.i.i = getelementptr inbounds i8, ptr %this, i64 96
  tail call void @_ZN9grpc_core24ConnectivityStateTrackerD1Ev(ptr noundef nonnull align 8 dereferenceable(72) %state_tracker_.i.i.i) #22
  %state_tracker_mu_.i.i.i = getelementptr inbounds i8, ptr %this, i64 88
  tail call void @_ZN4absl12lts_202308025MutexD1Ev(ptr noundef nonnull align 8 dereferenceable(8) %state_tracker_mu_.i.i.i) #22
  %disconnect_error_.i.i.i = getelementptr inbounds i8, ptr %this, i64 80
  %1 = load i64, ptr %disconnect_error_.i.i.i, align 16
  %and.i.i.i.i.i.i = and i64 %1, 1
  %cmp.i.i.i.i.i.i = icmp eq i64 %and.i.i.i.i.i.i, 0
  br i1 %cmp.i.i.i.i.i.i, label %_ZNK9grpc_core11UnrefDeleteclIKNS_12_GLOBAL__N_121InprocServerTransportEEEvPT_.exit.i, label %if.then.i.i.i.i.i

if.then.i.i.i.i.i:                                ; preds = %if.then.i
  invoke void @_ZN4absl12lts_202308026Status15UnrefNonInlinedEm(i64 noundef %1)
          to label %_ZNK9grpc_core11UnrefDeleteclIKNS_12_GLOBAL__N_121InprocServerTransportEEEvPT_.exit.i unwind label %terminate.lpad.i.i.i.i

terminate.lpad.i.i.i.i:                           ; preds = %if.then.i.i.i.i.i
  %2 = landingpad { ptr, i32 }
          catch ptr null
  %3 = extractvalue { ptr, i32 } %2, 0
  tail call void @__clang_call_terminate(ptr %3) #26
  unreachable

_ZNK9grpc_core11UnrefDeleteclIKNS_12_GLOBAL__N_121InprocServerTransportEEEvPT_.exit.i: ; preds = %if.then.i.i.i.i.i, %if.then.i
  %accept_.i.i.i = getelementptr inbounds i8, ptr %this, i64 48
  %manager_.i.i.i.i.i.i = getelementptr inbounds i8, ptr %this, i64 64
  %4 = load ptr, ptr %manager_.i.i.i.i.i.i, align 16
  tail call void %4(i1 noundef zeroext true, ptr noundef nonnull %accept_.i.i.i, ptr noundef nonnull %accept_.i.i.i) #22
  tail call void @_ZdlPv(ptr noundef nonnull %this) #25
  br label %_ZNK9grpc_core10RefCountedINS_12_GLOBAL__N_121InprocServerTransportENS_19PolymorphicRefCountENS_11UnrefDeleteEE5UnrefEv.exit

_ZNK9grpc_core10RefCountedINS_12_GLOBAL__N_121InprocServerTransportENS_19PolymorphicRefCountENS_11UnrefDeleteEE5UnrefEv.exit: ; preds = %entry, %_ZNK9grpc_core11UnrefDeleteclIKNS_12_GLOBAL__N_121InprocServerTransportEEEvPT_.exit.i
  ret void
}